; Function Attrs: nounwind uwtable
define noundef zeroext i1 @lv_font_get_glyph_dsc(ptr noundef %0, ptr noundef %1, i32 noundef %2, i32 noundef %3) local_unnamed_addr #0 {
  %.not = icmp eq ptr %0, null
  br i1 %.not, label %.preheader, label %5

.preheader:                                       ; preds = %4, %.preheader
  br label %.preheader

5:                                                ; preds = %4
  %.not48 = icmp eq ptr %1, null
  br i1 %.not48, label %.preheader57, label %6

.preheader57:                                     ; preds = %5, %.preheader57
  br label %.preheader57

6:                                                ; preds = %5
  store ptr null, ptr %1, align 8, !tbaa !3
  %7 = getelementptr inbounds nuw i8, ptr %1, i64 24
  %8 = load i8, ptr %7, align 8
  %9 = and i8 %8, -3
  store i8 %9, ptr %7, align 8
  br label %10

10:                                               ; preds = %6, %22
  %.04161 = phi ptr [ %0, %6 ], [ %24, %22 ]
  %.04360 = phi ptr [ null, %6 ], [ %.144, %22 ]
  %11 = load ptr, ptr %.04161, align 8, !tbaa !15
  %12 = getelementptr inbounds nuw i8, ptr %.04161, i64 32
  %13 = load i8, ptr %12, align 8
  %14 = and i8 %13, 4
  %.not52 = icmp eq i8 %14, 0
  %15 = select i1 %.not52, i32 %3, i32 0
  %16 = tail call zeroext i1 %11(ptr noundef nonnull %.04161, ptr noundef nonnull %1, i32 noundef %2, i32 noundef %15) #5
  br i1 %16, label %17, label %22

17:                                               ; preds = %10
  %18 = load i8, ptr %7, align 8
  %19 = and i8 %18, 1
  %.not53 = icmp eq i8 %19, 0
  br i1 %.not53, label %.thread, label %20

.thread:                                          ; preds = %17
  store ptr %.04161, ptr %1, align 8, !tbaa !3
  br label %48

20:                                               ; preds = %17
  %21 = icmp eq ptr %.04360, null
  %spec.select = select i1 %21, ptr %.04161, ptr %.04360
  br label %22

22:                                               ; preds = %10, %20
  %.144 = phi ptr [ %.04360, %10 ], [ %spec.select, %20 ]
  %23 = getelementptr inbounds nuw i8, ptr %.04161, i64 48
  %24 = load ptr, ptr %23, align 8, !tbaa !16
  %.not49 = icmp eq ptr %24, null
  br i1 %.not49, label %25, label %10, !llvm.loop !17

25:                                               ; preds = %22
  %.not50 = icmp eq ptr %.144, null
  br i1 %.not50, label %33, label %26

26:                                               ; preds = %25
  %27 = load ptr, ptr %.144, align 8, !tbaa !15
  %28 = getelementptr inbounds nuw i8, ptr %.144, i64 32
  %29 = load i8, ptr %28, align 8
  %30 = and i8 %29, 4
  %.not51 = icmp eq i8 %30, 0
  %31 = select i1 %.not51, i32 %3, i32 0
  %32 = tail call zeroext i1 %27(ptr noundef nonnull %.144, ptr noundef nonnull %1, i32 noundef %2, i32 noundef %31) #5
  store ptr %.144, ptr %1, align 8, !tbaa !3
  br label %48

33:                                               ; preds = %25
  %34 = getelementptr inbounds nuw i8, ptr %0, i64 24
  %35 = load i32, ptr %34, align 8, !tbaa !19
  %36 = sdiv i32 %35, 2
  %37 = trunc i32 %36 to i16
  %38 = getelementptr inbounds nuw i8, ptr %1, i64 10
  store i16 %37, ptr %38, align 2, !tbaa !20
  %39 = add i16 %37, 2
  %40 = getelementptr inbounds nuw i8, ptr %1, i64 8
  store i16 %39, ptr %40, align 8, !tbaa !21
  store ptr null, ptr %1, align 8, !tbaa !3
  %41 = trunc i32 %35 to i16
  %42 = getelementptr inbounds nuw i8, ptr %1, i64 12
  store i16 %41, ptr %42, align 4, !tbaa !22
  %43 = getelementptr inbounds nuw i8, ptr %1, i64 14
  store i16 0, ptr %43, align 2, !tbaa !23
  %44 = getelementptr inbounds nuw i8, ptr %1, i64 16
  store i16 0, ptr %44, align 8, !tbaa !24
  %45 = getelementptr inbounds nuw i8, ptr %1, i64 20
  store i32 1, ptr %45, align 4, !tbaa !25
  %46 = load i8, ptr %7, align 8
  %47 = or i8 %46, 1
  store i8 %47, ptr %7, align 8
  br label %48

48:                                               ; preds = %.thread, %33, %26
  %.2 = phi i1 [ true, %26 ], [ false, %33 ], [ true, %.thread ]
  ret i1 %.2
}